; Function Attrs: mustprogress uwtable
define noundef ptr @_ZN6icu_7513CollationRoot17getRootCacheEntryER10UErrorCode(ptr noundef nonnull align 4 dereferenceable(4) %errorCode) local_unnamed_addr #0 align 2 {
entry:
  %0 = load i32, ptr %errorCode, align 4
  %cmp.i.i = icmp slt i32 %0, 1
  br i1 %cmp.i.i, label %if.end.i, label %_ZN6icu_7513umtx_initOnceIPKcEEvRNS_9UInitOnceEPFvT_R10UErrorCodeES5_S7_.exit

if.end.i:                                         ; preds = %entry
  %1 = load atomic i32, ptr @_ZN6icu_7512_GLOBAL__N_18initOnceE acquire, align 4
  %cmp.not.i = icmp eq i32 %1, 2
  br i1 %cmp.not.i, label %if.else.i, label %land.lhs.true.i

land.lhs.true.i:                                  ; preds = %if.end.i
  %call2.i = tail call noundef signext i8 @_ZN6icu_7520umtx_initImplPreInitERNS_9UInitOnceE(ptr noundef nonnull align 4 dereferenceable(8) @_ZN6icu_7512_GLOBAL__N_18initOnceE)
  %tobool3.not.i = icmp eq i8 %call2.i, 0
  br i1 %tobool3.not.i, label %if.else.i, label %if.then4.i

if.then4.i:                                       ; preds = %land.lhs.true.i
  tail call void @_ZN6icu_7513CollationRoot4loadEPKcR10UErrorCode(ptr noundef null, ptr noundef nonnull align 4 dereferenceable(4) %errorCode)
  %2 = load i32, ptr %errorCode, align 4
  store i32 %2, ptr getelementptr inbounds ({ { i32 }, i32 }, ptr @_ZN6icu_7512_GLOBAL__N_18initOnceE, i64 0, i32 1), align 4
  tail call void @_ZN6icu_7521umtx_initImplPostInitERNS_9UInitOnceE(ptr noundef nonnull align 4 dereferenceable(8) @_ZN6icu_7512_GLOBAL__N_18initOnceE)
  br label %_ZN6icu_7513umtx_initOnceIPKcEEvRNS_9UInitOnceEPFvT_R10UErrorCodeES5_S7_.exit

if.else.i:                                        ; preds = %land.lhs.true.i, %if.end.i
  %3 = load i32, ptr getelementptr inbounds ({ { i32 }, i32 }, ptr @_ZN6icu_7512_GLOBAL__N_18initOnceE, i64 0, i32 1), align 4
  %cmp.i9.i = icmp slt i32 %3, 1
  br i1 %cmp.i9.i, label %_ZN6icu_7513umtx_initOnceIPKcEEvRNS_9UInitOnceEPFvT_R10UErrorCodeES5_S7_.exit, label %if.then8.i

if.then8.i:                                       ; preds = %if.else.i
  store i32 %3, ptr %errorCode, align 4
  br label %_ZN6icu_7513umtx_initOnceIPKcEEvRNS_9UInitOnceEPFvT_R10UErrorCodeES5_S7_.exit

_ZN6icu_7513umtx_initOnceIPKcEEvRNS_9UInitOnceEPFvT_R10UErrorCodeES5_S7_.exit: ; preds = %entry, %if.then4.i, %if.else.i, %if.then8.i
  %4 = load i32, ptr %errorCode, align 4
  %cmp.i = icmp slt i32 %4, 1
  %5 = load ptr, ptr @_ZN6icu_7512_GLOBAL__N_113rootSingletonE, align 8
  %retval.0 = select i1 %cmp.i, ptr %5, ptr null
  ret ptr %retval.0
}